; Function Attrs: mustprogress uwtable
define void @_ZN3zmq8object_t9send_stopEv(ptr noundef nonnull align 8 dereferenceable(20) %0) local_unnamed_addr #6 align 2 {
  %2 = alloca %"struct.zmq::command_t", align 64
  call void @llvm.lifetime.start.p0(i64 64, ptr nonnull %2) #11
  store ptr %0, ptr %2, align 64, !tbaa !20
  %3 = getelementptr inbounds nuw i8, ptr %2, i64 8
  store i32 0, ptr %3, align 8, !tbaa !13
  %4 = getelementptr inbounds nuw i8, ptr %0, i64 8
  %5 = load ptr, ptr %4, align 8, !tbaa !6
  %6 = getelementptr inbounds nuw i8, ptr %0, i64 16
  %7 = load i32, ptr %6, align 8, !tbaa !12
  call void @_ZN3zmq5ctx_t12send_commandEjRKNS_9command_tE(ptr noundef nonnull align 8 dereferenceable(648) %5, i32 noundef %7, ptr noundef nonnull align 64 dereferenceable(64) %2)
  call void @llvm.lifetime.end.p0(i64 64, ptr nonnull %2) #11
  ret void
}